Certificate:
    Data:
        Version: 3 (0x2)
        Serial Number: 1 (0x1)
    Signature Algorithm: sha1WithRSAEncryption
        Issuer: CN=htt.ca, C=CH, ST=Aargau, L=Wohlen, O=htt.sourceforge.net/emailAddress=ia97lies@sourceforge.net
        Validity
            Not Before: Apr 29 15:05:37 2013 GMT
            Not After : Apr 27 15:05:37 2023 GMT
        Subject: C=CH, ST=Aargau, O=htt.sourceforge.net, CN=htt.ca/emailAddress=ia97lies@sourceforge.net
        Subject Public Key Info:
            Public Key Algorithm: rsaEncryption
                Public-Key: (1024 bit)
                Modulus:
                    00:ce:c3:0e:97:d4:7f:31:f4:04:2f:16:19:85:36:
                    27:78:6e:dc:de:79:f3:0e:91:b3:7a:43:1f:fb:20:
                    41:1f:95:3e:9d:65:f4:1d:9a:78:d7:09:99:8d:17:
                    12:7e:b6:d1:94:84:84:46:4a:0d:f5:1f:31:f3:3c:
                    2c:bd:db:f0:9f:e1:b7:e3:55:44:1b:fc:22:0c:29:
                    7f:e4:5e:cc:2e:2a:0b:cc:d4:80:9e:b4:42:14:f1:
                    ae:1e:bf:6d:fb:4f:60:39:6e:2d:e9:d0:9c:c7:f1:
                    b9:e9:14:17:38:b6:46:d1:5e:d6:0c:54:32:9f:12:
                    aa:9d:7a:08:03:3c:c1:f4:97
                Exponent: 65537 (0x10001)
        X509v3 extensions:
            X509v3 Basic Constraints: 
                CA:FALSE
            X509v3 Subject Key Identifier: 
                0A:11:3F:E5:5C:92:B8:AF:30:87:C7:96:90:62:92:0D:CB:75:7B:A0
            X509v3 Authority Key Identifier: 
                keyid:9B:33:23:DA:C1:E6:B9:58:E1:86:25:5B:89:2A:A9:97:E0:1E:C2:A0
                DirName:/CN=htt.ca/C=CH/ST=Aargau/L=Wohlen/O=htt.sourceforge.net/emailAddress=ia97lies@sourceforge.net
                serial:C0:9D:BC:73:B9:AA:80:13

    Signature Algorithm: sha1WithRSAEncryption
         c7:1b:3a:32:88:ba:05:4b:ff:fb:41:a7:e7:21:8c:7a:9f:aa:
         fd:07:6c:24:32:21:ba:4a:9e:3f:ef:92:db:b8:07:c4:e6:6b:
         54:57:14:1a:fd:b4:21:f9:1c:c7:63:61:ad:02:46:7f:4c:b7:
         56:35:8d:c1:c5:f2:24:cb:96:f1:81:88:c1:55:2a:ae:8e:8c:
         13:1a:72:52:26:57:8d:44:8c:1f:2f:61:22:dd:05:e4:da:92:
         bd:38:51:36:e7:9c:07:48:77:0f:4f:66:62:21:df:ff:e6:b4:
         e5:41:da:82:31:0a:69:e5:de:20:c4:52:ba:c0:32:8b:04:01:
         da:20
-----BEGIN CERTIFICATE-----
MIIDYTCCAsqgAwIBAgIBATANBgkqhkiG9w0BAQUFADCBhzEPMA0GA1UEAxMGaHR0
LmNhMQswCQYDVQQGEwJDSDEPMA0GA1UECBMGQWFyZ2F1MQ8wDQYDVQQHEwZXb2hs
ZW4xHDAaBgNVBAoTE2h0dC5zb3VyY2Vmb3JnZS5uZXQxJzAlBgkqhkiG9w0BCQEW
GGlhOTdsaWVzQHNvdXJjZWZvcmdlLm5ldDAeFw0xMzA0MjkxNTA1MzdaFw0yMzA0
MjcxNTA1MzdaMHYxCzAJBgNVBAYTAkNIMQ8wDQYDVQQIEwZBYXJnYXUxHDAaBgNV
BAoTE2h0dC5zb3VyY2Vmb3JnZS5uZXQxDzANBgNVBAMTBmh0dC5jYTEnMCUGCSqG
SIb3DQEJARYYaWE5N2xpZXNAc291cmNlZm9yZ2UubmV0MIGfMA0GCSqGSIb3DQEB
AQUAA4GNADCBiQKBgQDOww6X1H8x9AQvFhmFNid4btzeefMOkbN6Qx/7IEEflT6d
ZfQdmnjXCZmNFxJ+ttGUhIRGSg31HzHzPCy92/Cf4bfjVUQb/CIMKX/kXswuKgvM
1ICetEIU8a4ev237T2A5bi3p0JzH8bnpFBc4tkbRXtYMVDKfEqqdeggDPMH0lwID
AQABo4HsMIHpMAkGA1UdEwQCMAAwHQYDVR0OBBYEFAoRP+VckrivMIfHlpBikg3L
dXugMIG8BgNVHSMEgbQwgbGAFJszI9rB5rlY4YYlW4kqqZfgHsKgoYGNpIGKMIGH
MQ8wDQYDVQQDEwZodHQuY2ExCzAJBgNVBAYTAkNIMQ8wDQYDVQQIEwZBYXJnYXUx
DzANBgNVBAcTBldvaGxlbjEcMBoGA1UEChMTaHR0LnNvdXJjZWZvcmdlLm5ldDEn
MCUGCSqGSIb3DQEJARYYaWE5N2xpZXNAc291cmNlZm9yZ2UubmV0ggkAwJ28c7mq
gBMwDQYJKoZIhvcNAQEFBQADgYEAxxs6Moi6BUv/+0Gn5yGMep+q/QdsJDIhukqe
P++S27gHxOZrVFcUGv20Ifkcx2NhrQJGf0y3VjWNwcXyJMuW8YGIwVUqro6MExpy
UiZXjUSMHy9hIt0F5NqSvThRNuecB0h3D09mYiHf/+a05UHagjEKaeXeIMRSusAy
iwQB2iA=
-----END CERTIFICATE-----
